; Function Attrs: nounwind uwtable
define zeroext i1 @duckdb_je_arena_boot(ptr noundef readonly captures(none) %0, ptr noundef %1, i1 noundef zeroext %2) local_unnamed_addr #0 {
  %4 = load i64, ptr @duckdb_je_opt_dirty_decay_ms, align 8, !tbaa !10
  %5 = tail call zeroext i1 @duckdb_je_decay_ms_valid(i64 noundef %4) #18
  br i1 %5, label %atomic_store_zd.exit.i, label %duckdb_je_arena_dirty_decay_ms_default_set.exit

atomic_store_zd.exit.i:                           ; preds = %3
  store atomic i64 %4, ptr @dirty_decay_ms_default.0 monotonic, align 8
  br label %duckdb_je_arena_dirty_decay_ms_default_set.exit

duckdb_je_arena_dirty_decay_ms_default_set.exit:  ; preds = %3, %atomic_store_zd.exit.i
  %6 = load i64, ptr @duckdb_je_opt_muzzy_decay_ms, align 8, !tbaa !10
  %7 = tail call zeroext i1 @duckdb_je_decay_ms_valid(i64 noundef %6) #18
  br i1 %7, label %atomic_store_zd.exit.i22, label %duckdb_je_arena_muzzy_decay_ms_default_set.exit

atomic_store_zd.exit.i22:                         ; preds = %duckdb_je_arena_dirty_decay_ms_default_set.exit
  store atomic i64 %6, ptr @muzzy_decay_ms_default.0 monotonic, align 8
  br label %duckdb_je_arena_muzzy_decay_ms_default_set.exit

duckdb_je_arena_muzzy_decay_ms_default_set.exit:  ; preds = %duckdb_je_arena_dirty_decay_ms_default_set.exit, %atomic_store_zd.exit.i22
  %8 = getelementptr inbounds nuw i8, ptr %0, i64 76
  br label %11

.preheader:                                       ; preds = %11
  %9 = load i32, ptr @duckdb_je_bin_info_nbatched_sizes, align 4, !tbaa !3
  %10 = zext i32 %9 to i64
  br label %26

11:                                               ; preds = %duckdb_je_arena_muzzy_decay_ms_default_set.exit, %11
  %indvars.iv = phi i64 [ 0, %duckdb_je_arena_muzzy_decay_ms_default_set.exit ], [ %indvars.iv.next, %11 ]
  %12 = getelementptr inbounds nuw [232 x %struct.sc_s], ptr %8, i64 0, i64 %indvars.iv
  %13 = getelementptr inbounds nuw [36 x %struct.div_info_s], ptr @duckdb_je_arena_binind_div_info, i64 0, i64 %indvars.iv
  %14 = getelementptr inbounds nuw i8, ptr %12, i64 4
  %15 = load i32, ptr %14, align 4, !tbaa !226
  %16 = shl nuw i32 1, %15
  %17 = getelementptr inbounds nuw i8, ptr %12, i64 12
  %18 = load i32, ptr %17, align 4, !tbaa !228
  %19 = getelementptr inbounds nuw i8, ptr %12, i64 8
  %20 = load i32, ptr %19, align 4, !tbaa !229
  %21 = shl i32 %18, %20
  %22 = add i32 %21, %16
  %23 = zext i32 %22 to i64
  tail call void @duckdb_je_div_init(ptr noundef nonnull %13, i64 noundef %23) #18
  %indvars.iv.next = add nuw nsw i64 %indvars.iv, 1
  %exitcond.not = icmp eq i64 %indvars.iv.next, 36
  br i1 %exitcond.not, label %.preheader, label %11

24:                                               ; preds = %26
  %25 = tail call zeroext i1 @duckdb_je_pa_central_init(ptr noundef nonnull @duckdb_je_arena_pa_central_global, ptr noundef %1, i1 noundef zeroext %2, ptr noundef nonnull @duckdb_je_hpa_hooks_default) #18
  ret i1 %25

26:                                               ; preds = %.preheader, %26
  %indvars.iv27 = phi i64 [ 0, %.preheader ], [ %indvars.iv.next28, %26 ]
  %.01824 = phi i32 [ 79040, %.preheader ], [ %33, %26 ]
  %27 = getelementptr inbounds nuw [36 x i32], ptr @duckdb_je_arena_bin_offsets, i64 0, i64 %indvars.iv27
  store i32 %.01824, ptr %27, align 4, !tbaa !3
  %28 = icmp samesign ult i64 %indvars.iv27, %10
  %29 = select i1 %28, i32 648, i32 256
  %30 = getelementptr inbounds nuw [36 x %struct.bin_info_s], ptr @duckdb_je_bin_infos, i64 0, i64 %indvars.iv27, i32 3
  %31 = load i32, ptr %30, align 4, !tbaa !103
  %32 = mul i32 %29, %31
  %33 = add i32 %32, %.01824
  %indvars.iv.next28 = add nuw nsw i64 %indvars.iv27, 1
  %exitcond30.not = icmp eq i64 %indvars.iv.next28, 36
  br i1 %exitcond30.not, label %24, label %26
}